; Function Attrs: nounwind uwtable
define nonnull ptr @l_Lean_Lsp_ClientCapabilities_silentDiagnosticSupport___boxed(ptr noundef %0) local_unnamed_addr #0 {
  %2 = getelementptr inbounds nuw i8, ptr %0, i64 32
  %3 = load ptr, ptr %2, align 8, !tbaa !4
  %4 = ptrtoint ptr %3 to i64
  %5 = and i64 %4, 1
  %.not.i.i = icmp eq i64 %5, 0
  br i1 %.not.i.i, label %9, label %6

6:                                                ; preds = %1
  %7 = lshr i64 %4, 1
  %8 = trunc i64 %7 to i32
  br label %lean_obj_tag.exit.i

9:                                                ; preds = %1
  %10 = getelementptr i8, ptr %3, i64 4
  %.val.i.i = load i32, ptr %10, align 4
  %11 = lshr i32 %.val.i.i, 24
  br label %lean_obj_tag.exit.i

lean_obj_tag.exit.i:                              ; preds = %9, %6
  %.0.i.i = phi i32 [ %8, %6 ], [ %11, %9 ]
  %12 = icmp eq i32 %.0.i.i, 0
  br i1 %12, label %l_Lean_Lsp_ClientCapabilities_silentDiagnosticSupport.exit, label %13

13:                                               ; preds = %lean_obj_tag.exit.i
  %14 = getelementptr inbounds nuw i8, ptr %3, i64 8
  %15 = load ptr, ptr %14, align 8, !tbaa !4
  %16 = ptrtoint ptr %15 to i64
  %17 = and i64 %16, 1
  %.not.i9.i = icmp eq i64 %17, 0
  br i1 %.not.i9.i, label %21, label %18

18:                                               ; preds = %13
  %19 = lshr i64 %16, 1
  %20 = trunc i64 %19 to i32
  br label %lean_obj_tag.exit12.i

21:                                               ; preds = %13
  %22 = getelementptr i8, ptr %15, i64 4
  %.val.i11.i = load i32, ptr %22, align 4
  %23 = lshr i32 %.val.i11.i, 24
  br label %lean_obj_tag.exit12.i

lean_obj_tag.exit12.i:                            ; preds = %21, %18
  %.0.i10.i = phi i32 [ %20, %18 ], [ %23, %21 ]
  %24 = icmp eq i32 %.0.i10.i, 0
  br i1 %24, label %l_Lean_Lsp_ClientCapabilities_silentDiagnosticSupport.exit, label %25

25:                                               ; preds = %lean_obj_tag.exit12.i
  %26 = getelementptr inbounds nuw i8, ptr %15, i64 8
  %27 = load ptr, ptr %26, align 8, !tbaa !4
  %28 = ptrtoint ptr %27 to i64
  %29 = and i64 %28, 510
  %30 = or disjoint i64 %29, 1
  br label %l_Lean_Lsp_ClientCapabilities_silentDiagnosticSupport.exit

l_Lean_Lsp_ClientCapabilities_silentDiagnosticSupport.exit: ; preds = %lean_obj_tag.exit.i, %lean_obj_tag.exit12.i, %25
  %.0.i = phi i64 [ 1, %lean_obj_tag.exit.i ], [ %30, %25 ], [ 1, %lean_obj_tag.exit12.i ]
  %31 = ptrtoint ptr %0 to i64
  %32 = and i64 %31, 1
  %.not = icmp eq i64 %32, 0
  br i1 %.not, label %33, label %lean_dec.exit

33:                                               ; preds = %l_Lean_Lsp_ClientCapabilities_silentDiagnosticSupport.exit
  %34 = load i32, ptr %0, align 4, !tbaa !8
  %35 = icmp sgt i32 %34, 1
  br i1 %35, label %36, label %38, !prof !13

36:                                               ; preds = %33
  %37 = add nsw i32 %34, -1
  store i32 %37, ptr %0, align 4, !tbaa !8
  br label %lean_dec.exit

38:                                               ; preds = %33
  %.not.i = icmp eq i32 %34, 0
  br i1 %.not.i, label %lean_dec.exit, label %39

39:                                               ; preds = %38
  tail call void @lean_dec_ref_cold(ptr noundef nonnull %0) #6
  br label %lean_dec.exit

lean_dec.exit:                                    ; preds = %39, %38, %36, %l_Lean_Lsp_ClientCapabilities_silentDiagnosticSupport.exit
  %40 = inttoptr i64 %.0.i to ptr
  ret ptr %40
}